target datalayout = "e-m:e-p270:32:32-p271:32:32-p272:64:64-i64:64-i128:128-f80:128-n8:16:32:64-S128"
target triple = "x86_64-pc-linux-gnu"

%struct.FFIIRFilterCoeffs = type { i32, float, ptr, ptr }

@.str = private unnamed_addr constant [42 x i8] c"filter type is not currently implemented\0A\00", align 1

; Function Attrs: cold nounwind optsize uwtable
define ptr @ff_iir_filter_init_coeffs(ptr noundef %0, i32 noundef %1, i32 noundef %2, i32 noundef %3, float noundef %4, float noundef %5, float noundef %6) #0 {
  %8 = alloca ptr, align 8
  %9 = alloca ptr, align 8
  %10 = alloca i32, align 4
  %11 = alloca i32, align 4
  %12 = alloca i32, align 4
  %13 = alloca float, align 4
  %14 = alloca float, align 4
  %15 = alloca float, align 4
  %16 = alloca ptr, align 8
  %17 = alloca i32, align 4
  %18 = alloca i32, align 4
  store ptr %0, ptr %9, align 8, !tbaa !4
  store i32 %1, ptr %10, align 4, !tbaa !8
  store i32 %2, ptr %11, align 4, !tbaa !8
  store i32 %3, ptr %12, align 4, !tbaa !8
  store float %4, ptr %13, align 4, !tbaa !10
  store float %5, ptr %14, align 4, !tbaa !10
  store float %6, ptr %15, align 4, !tbaa !10
  call void @llvm.lifetime.start.p0(i64 8, ptr %16) #5
  call void @llvm.lifetime.start.p0(i64 4, ptr %17) #5
  store i32 0, ptr %17, align 4, !tbaa !8
  %19 = load i32, ptr %12, align 4, !tbaa !8
  %20 = icmp sle i32 %19, 0
  br i1 %20, label %28, label %21

21:                                               ; preds = %7
  %22 = load i32, ptr %12, align 4, !tbaa !8
  %23 = icmp sgt i32 %22, 30
  br i1 %23, label %28, label %24

24:                                               ; preds = %21
  %25 = load float, ptr %13, align 4, !tbaa !10
  %26 = fpext nsz float %25 to double
  %27 = fcmp nsz oge double %26, 1.000000e+00
  br i1 %27, label %28, label %29

28:                                               ; preds = %24, %21, %7
  store ptr null, ptr %8, align 8
  store i32 1, ptr %18, align 4
  br label %81

29:                                               ; preds = %24
  %30 = call noalias ptr @av_mallocz(i64 noundef 24)
  store ptr %30, ptr %16, align 8, !tbaa !12
  %31 = icmp ne ptr %30, null
  br i1 %31, label %32, label %50

32:                                               ; preds = %29
  %33 = load i32, ptr %12, align 4, !tbaa !8
  %34 = ashr i32 %33, 1
  %35 = add nsw i32 %34, 1
  %36 = sext i32 %35 to i64
  %37 = mul i64 4, %36
  %38 = call noalias ptr @av_malloc(i64 noundef %37)
  %39 = load ptr, ptr %16, align 8, !tbaa !12
  %40 = getelementptr inbounds nuw %struct.FFIIRFilterCoeffs, ptr %39, i32 0, i32 2
  store ptr %38, ptr %40, align 8, !tbaa !14
  %41 = icmp ne ptr %38, null
  br i1 %41, label %42, label %50

42:                                               ; preds = %32
  %43 = load i32, ptr %12, align 4, !tbaa !8
  %44 = sext i32 %43 to i64
  %45 = mul i64 4, %44
  %46 = call noalias ptr @av_malloc(i64 noundef %45)
  %47 = load ptr, ptr %16, align 8, !tbaa !12
  %48 = getelementptr inbounds nuw %struct.FFIIRFilterCoeffs, ptr %47, i32 0, i32 3
  store ptr %46, ptr %48, align 8, !tbaa !18
  %49 = icmp ne ptr %46, null
  br i1 %49, label %51, label %50

50:                                               ; preds = %42, %32, %29
  br label %80

51:                                               ; preds = %42
  %52 = load i32, ptr %12, align 4, !tbaa !8
  %53 = load ptr, ptr %16, align 8, !tbaa !12
  %54 = getelementptr inbounds nuw %struct.FFIIRFilterCoeffs, ptr %53, i32 0, i32 0
  store i32 %52, ptr %54, align 8, !tbaa !19
  %55 = load i32, ptr %10, align 4, !tbaa !8
  switch i32 %55, label %72 [
    i32 2, label %56
    i32 1, label %64
  ]

56:                                               ; preds = %51
  %57 = load ptr, ptr %9, align 8, !tbaa !4
  %58 = load ptr, ptr %16, align 8, !tbaa !12
  %59 = load i32, ptr %11, align 4, !tbaa !8
  %60 = load i32, ptr %12, align 4, !tbaa !8
  %61 = load float, ptr %13, align 4, !tbaa !10
  %62 = load float, ptr %14, align 4, !tbaa !10
  %63 = call i32 @butterworth_init_coeffs(ptr noundef %57, ptr noundef %58, i32 noundef %59, i32 noundef %60, float noundef %61, float noundef %62) #6
  store i32 %63, ptr %17, align 4, !tbaa !8
  br label %74

64:                                               ; preds = %51
  %65 = load ptr, ptr %9, align 8, !tbaa !4
  %66 = load ptr, ptr %16, align 8, !tbaa !12
  %67 = load i32, ptr %11, align 4, !tbaa !8
  %68 = load i32, ptr %12, align 4, !tbaa !8
  %69 = load float, ptr %13, align 4, !tbaa !10
  %70 = load float, ptr %14, align 4, !tbaa !10
  %71 = call i32 @biquad_init_coeffs(ptr noundef %65, ptr noundef %66, i32 noundef %67, i32 noundef %68, float noundef %69, float noundef %70) #6
  store i32 %71, ptr %17, align 4, !tbaa !8
  br label %74

72:                                               ; preds = %51
  %73 = load ptr, ptr %9, align 8, !tbaa !4
  call void (ptr, i32, ptr, ...) @av_log(ptr noundef %73, i32 noundef 16, ptr noundef @.str)
  br label %80

74:                                               ; preds = %64, %56
  %75 = load i32, ptr %17, align 4, !tbaa !8
  %76 = icmp ne i32 %75, 0
  br i1 %76, label %79, label %77

77:                                               ; preds = %74
  %78 = load ptr, ptr %16, align 8, !tbaa !12
  store ptr %78, ptr %8, align 8
  store i32 1, ptr %18, align 4
  br label %81

79:                                               ; preds = %74
  br label %80

80:                                               ; preds = %79, %72, %50
  call void @ff_iir_filter_free_coeffsp(ptr noundef %16)
  store ptr null, ptr %8, align 8
  store i32 1, ptr %18, align 4
  br label %81

81:                                               ; preds = %80, %77, %28
  call void @llvm.lifetime.end.p0(i64 4, ptr %17) #5
  call void @llvm.lifetime.end.p0(i64 8, ptr %16) #5
  %82 = load ptr, ptr %8, align 8
  ret ptr %82
}