; Function Attrs: cold nounwind optsize uwtable
define ptr @ff_iir_filter_init_coeffs(ptr noundef %0, i32 noundef %1, i32 noundef %2, i32 noundef %3, float noundef %4, float noundef %5, float noundef %6) local_unnamed_addr #0 {
  %8 = alloca ptr, align 8
  call void @llvm.lifetime.start.p0(i64 8, ptr nonnull %8) #9
  %9 = add i32 %3, -1
  %or.cond = icmp ult i32 %9, 30
  %10 = fcmp nsz ult float %4, 1.000000e+00
  %or.cond25 = and i1 %or.cond, %10
  br i1 %or.cond25, label %11, label %33

11:                                               ; preds = %7
  %12 = tail call noalias ptr @av_mallocz(i64 noundef 24) #9
  store ptr %12, ptr %8, align 8, !tbaa !4
  %.not = icmp eq ptr %12, null
  br i1 %.not, label %32, label %13

13:                                               ; preds = %11
  %14 = shl nuw nsw i32 %3, 1
  %15 = and i32 %14, 60
  %16 = add nuw nsw i32 %15, 4
  %17 = zext nneg i32 %16 to i64
  %18 = tail call noalias ptr @av_malloc(i64 noundef %17) #9
  %19 = getelementptr inbounds nuw i8, ptr %12, i64 8
  store ptr %18, ptr %19, align 8, !tbaa !9
  %.not22 = icmp eq ptr %18, null
  br i1 %.not22, label %32, label %20

20:                                               ; preds = %13
  %21 = shl nuw nsw i32 %3, 2
  %22 = zext nneg i32 %21 to i64
  %23 = tail call noalias ptr @av_malloc(i64 noundef %22) #9
  %24 = getelementptr inbounds nuw i8, ptr %12, i64 16
  store ptr %23, ptr %24, align 8, !tbaa !15
  %.not23 = icmp eq ptr %23, null
  br i1 %.not23, label %32, label %25

25:                                               ; preds = %20
  store i32 %3, ptr %12, align 8, !tbaa !16
  switch i32 %1, label %30 [
    i32 2, label %26
    i32 1, label %28
  ]

26:                                               ; preds = %25
  %27 = tail call fastcc i32 @butterworth_init_coeffs(ptr noundef %0, ptr noundef nonnull %12, i32 noundef %2, i32 noundef %3, float noundef %4) #10
  br label %31

28:                                               ; preds = %25
  %29 = tail call fastcc i32 @biquad_init_coeffs(ptr noundef %0, ptr noundef nonnull %12, i32 noundef %2, i32 noundef %3, float noundef %4) #10
  br label %31

30:                                               ; preds = %25
  tail call void (ptr, i32, ptr, ...) @av_log(ptr noundef %0, i32 noundef 16, ptr noundef nonnull @.str) #9
  br label %32

31:                                               ; preds = %28, %26
  %.0 = phi i32 [ %29, %28 ], [ %27, %26 ]
  %.not24 = icmp eq i32 %.0, 0
  br i1 %.not24, label %33, label %32

32:                                               ; preds = %31, %11, %13, %20, %30
  call void @ff_iir_filter_free_coeffsp(ptr noundef nonnull %8)
  br label %33

33:                                               ; preds = %31, %7, %32
  %.020 = phi ptr [ null, %32 ], [ null, %7 ], [ %12, %31 ]
  call void @llvm.lifetime.end.p0(i64 8, ptr nonnull %8) #9
  ret ptr %.020
}